target datalayout = "e-m:e-p270:32:32-p271:32:32-p272:64:64-i64:64-i128:128-f80:128-n8:16:32:64-S128"
target triple = "x86_64-pc-linux-gnu"

%"class.google::protobuf::internal::RepeatedPtrFieldBase" = type { ptr, i32, i32, ptr }
%"struct.google::protobuf::internal::RepeatedPtrFieldBase::Rep" = type { i32, [268435454 x ptr] }

; Function Attrs: mustprogress nounwind uwtable
define hidden void @_ZN6google8protobuf8internal20RepeatedPtrFieldBase8CloseGapEii(ptr noundef nonnull align 8 dereferenceable(24) %0, i32 noundef %1, i32 noundef %2) #7 align 2 {
  %4 = alloca ptr, align 8
  %5 = alloca i32, align 4
  %6 = alloca i32, align 4
  %7 = alloca i32, align 4
  store ptr %0, ptr %4, align 8, !tbaa !3
  store i32 %1, ptr %5, align 4, !tbaa !8
  store i32 %2, ptr %6, align 4, !tbaa !8
  %8 = load ptr, ptr %4, align 8
  %9 = getelementptr inbounds nuw %"class.google::protobuf::internal::RepeatedPtrFieldBase", ptr %8, i32 0, i32 3
  %10 = load ptr, ptr %9, align 8, !tbaa !15
  %11 = icmp eq ptr %10, null
  br i1 %11, label %12, label %13

12:                                               ; preds = %3
  br label %55

13:                                               ; preds = %3
  call void @llvm.lifetime.start.p0(i64 4, ptr %7) #3
  %14 = load i32, ptr %5, align 4, !tbaa !8
  %15 = load i32, ptr %6, align 4, !tbaa !8
  %16 = add nsw i32 %14, %15
  store i32 %16, ptr %7, align 4, !tbaa !8
  br label %17

17:                                               ; preds = %41, %13
  %18 = load i32, ptr %7, align 4, !tbaa !8
  %19 = getelementptr inbounds nuw %"class.google::protobuf::internal::RepeatedPtrFieldBase", ptr %8, i32 0, i32 3
  %20 = load ptr, ptr %19, align 8, !tbaa !15
  %21 = getelementptr inbounds nuw %"struct.google::protobuf::internal::RepeatedPtrFieldBase::Rep", ptr %20, i32 0, i32 0
  %22 = load i32, ptr %21, align 8, !tbaa !20
  %23 = icmp slt i32 %18, %22
  br i1 %23, label %25, label %24

24:                                               ; preds = %17
  call void @llvm.lifetime.end.p0(i64 4, ptr %7) #3
  br label %44

25:                                               ; preds = %17
  %26 = getelementptr inbounds nuw %"class.google::protobuf::internal::RepeatedPtrFieldBase", ptr %8, i32 0, i32 3
  %27 = load ptr, ptr %26, align 8, !tbaa !15
  %28 = getelementptr inbounds nuw %"struct.google::protobuf::internal::RepeatedPtrFieldBase::Rep", ptr %27, i32 0, i32 1
  %29 = load i32, ptr %7, align 4, !tbaa !8
  %30 = sext i32 %29 to i64
  %31 = getelementptr inbounds [268435454 x ptr], ptr %28, i64 0, i64 %30
  %32 = load ptr, ptr %31, align 8, !tbaa !30
  %33 = getelementptr inbounds nuw %"class.google::protobuf::internal::RepeatedPtrFieldBase", ptr %8, i32 0, i32 3
  %34 = load ptr, ptr %33, align 8, !tbaa !15
  %35 = getelementptr inbounds nuw %"struct.google::protobuf::internal::RepeatedPtrFieldBase::Rep", ptr %34, i32 0, i32 1
  %36 = load i32, ptr %7, align 4, !tbaa !8
  %37 = load i32, ptr %6, align 4, !tbaa !8
  %38 = sub nsw i32 %36, %37
  %39 = sext i32 %38 to i64
  %40 = getelementptr inbounds [268435454 x ptr], ptr %35, i64 0, i64 %39
  store ptr %32, ptr %40, align 8, !tbaa !30
  br label %41

41:                                               ; preds = %25
  %42 = load i32, ptr %7, align 4, !tbaa !8
  %43 = add nsw i32 %42, 1
  store i32 %43, ptr %7, align 4, !tbaa !8
  br label %17, !llvm.loop !34

44:                                               ; preds = %24
  %45 = load i32, ptr %6, align 4, !tbaa !8
  %46 = getelementptr inbounds nuw %"class.google::protobuf::internal::RepeatedPtrFieldBase", ptr %8, i32 0, i32 1
  %47 = load i32, ptr %46, align 8, !tbaa !10
  %48 = sub nsw i32 %47, %45
  store i32 %48, ptr %46, align 8, !tbaa !10
  %49 = load i32, ptr %6, align 4, !tbaa !8
  %50 = getelementptr inbounds nuw %"class.google::protobuf::internal::RepeatedPtrFieldBase", ptr %8, i32 0, i32 3
  %51 = load ptr, ptr %50, align 8, !tbaa !15
  %52 = getelementptr inbounds nuw %"struct.google::protobuf::internal::RepeatedPtrFieldBase::Rep", ptr %51, i32 0, i32 0
  %53 = load i32, ptr %52, align 8, !tbaa !20
  %54 = sub nsw i32 %53, %49
  store i32 %54, ptr %52, align 8, !tbaa !20
  br label %55

55:                                               ; preds = %44, %12
  ret void
}